target datalayout = "e-m:e-p270:32:32-p271:32:32-p272:64:64-i64:64-i128:128-f80:128-n8:16:32:64-S128"
target triple = "x86_64-pc-linux-gnu"

; Function Attrs: nounwind uwtable
define internal i32 @lstat_cache(ptr noundef %0, ptr noundef %1, i32 noundef %2, i32 noundef %3, i32 noundef %4) #0 {
  %6 = alloca ptr, align 8
  %7 = alloca ptr, align 8
  %8 = alloca i32, align 4
  %9 = alloca i32, align 4
  %10 = alloca i32, align 4
  %11 = alloca i32, align 4
  store ptr %0, ptr %6, align 8, !tbaa !4
  store ptr %1, ptr %7, align 8, !tbaa !9
  store i32 %2, ptr %8, align 4, !tbaa !11
  store i32 %3, ptr %9, align 4, !tbaa !11
  store i32 %4, ptr %10, align 4, !tbaa !11
  call void @llvm.lifetime.start.p0(i64 4, ptr %11) #8
  %12 = load ptr, ptr %6, align 8, !tbaa !4
  %13 = load ptr, ptr %7, align 8, !tbaa !9
  %14 = load i32, ptr %8, align 4, !tbaa !11
  %15 = load i32, ptr %9, align 4, !tbaa !11
  %16 = load i32, ptr %10, align 4, !tbaa !11
  %17 = call i32 @lstat_cache_matchlen(ptr noundef %12, ptr noundef %13, i32 noundef %14, ptr noundef %11, i32 noundef %15, i32 noundef %16)
  %18 = load i32, ptr %11, align 4, !tbaa !11
  call void @llvm.lifetime.end.p0(i64 4, ptr %11) #8
  ret i32 %18
}

; Function Attrs: nounwind uwtable
define dso_local i32 @threaded_has_symlink_leading_path(ptr noundef %0, ptr noundef %1, i32 noundef %2) #0 {
  %4 = alloca ptr, align 8
  %5 = alloca ptr, align 8
  %6 = alloca i32, align 4
  store ptr %0, ptr %4, align 8, !tbaa !4
  store ptr %1, ptr %5, align 8, !tbaa !9
  store i32 %2, ptr %6, align 4, !tbaa !11
  %7 = load ptr, ptr %4, align 8, !tbaa !4
  %8 = load ptr, ptr %5, align 8, !tbaa !9
  %9 = load i32, ptr %6, align 4, !tbaa !11
  %10 = call i32 @lstat_cache(ptr noundef %7, ptr noundef %8, i32 noundef %9, i32 noundef 5, i32 noundef 0)
  %11 = and i32 %10, 4
  ret i32 %11
}