; Function Attrs: nounwind uwtable
define dso_local range(i32 0, 5) i32 @threaded_has_symlink_leading_path(ptr noundef %0, ptr noundef readonly captures(none) %1, i32 noundef %2) local_unnamed_addr #0 {
  %4 = alloca i32, align 4
  call void @llvm.lifetime.start.p0(i64 4, ptr nonnull %4) #11
  %5 = call fastcc i32 @lstat_cache_matchlen(ptr noundef %0, ptr noundef readonly %1, i32 noundef %2, ptr noundef %4, i32 noundef 5, i32 noundef 0)
  %6 = load i32, ptr %4, align 4, !tbaa !4
  call void @llvm.lifetime.end.p0(i64 4, ptr nonnull %4) #11
  %7 = and i32 %6, 4
  ret i32 %7
}